target datalayout = "e-m:e-p270:32:32-p271:32:32-p272:64:64-i64:64-i128:128-f80:128-n8:16:32:64-S128"
target triple = "x86_64-unknown-linux-gnu"

%"class.grpc_core::TraceFlag" = type <{ ptr, ptr, %"struct.std::atomic", [7 x i8] }>
%"struct.std::atomic" = type { %"struct.std::__atomic_base" }
%"struct.std::__atomic_base" = type { i8 }
%struct.grpc_slice = type { ptr, %"union.grpc_slice::grpc_slice_data" }
%"union.grpc_slice::grpc_slice_data" = type { %"struct.grpc_slice::grpc_slice_data::grpc_slice_refcounted", [8 x i8] }
%"struct.grpc_slice::grpc_slice_data::grpc_slice_refcounted" = type { i64, ptr }
%struct.grpc_call_details = type { %struct.grpc_slice, %struct.grpc_slice, %struct.gpr_timespec }
%struct.gpr_timespec = type { i64, i32, i32 }

@grpc_api_trace = external global %"class.grpc_core::TraceFlag", align 8
@.str = private unnamed_addr constant [124 x i8] c"generated/home/dtcxzyw/WorkSpace/Projects/compilers/llvm-opt-benchmark/bench/grpc/grpc/src/core/lib/surface/call_details.cc\00", align 1
@.str.1 = private unnamed_addr constant [35 x i8] c"grpc_call_details_init(details=%p)\00", align 1

; Function Attrs: noreturn nounwind uwtable
define linkonce_odr hidden void @__clang_call_terminate(ptr noundef %0) #7 comdat {
  %2 = call ptr @__cxa_begin_catch(ptr %0) #3
  call void @_ZSt9terminatev() #11
  unreachable
}

; Function Attrs: mustprogress nounwind uwtable
define linkonce_odr noundef i32 @_ZStanSt12memory_orderSt23__memory_order_modifier(i32 noundef %__m, i32 noundef %__mod) #5 comdat {
entry:
  %__m.addr = alloca i32, align 4
  %__mod.addr = alloca i32, align 4
  store i32 %__m, ptr %__m.addr, align 4
  store i32 %__mod, ptr %__mod.addr, align 4
  %0 = load i32, ptr %__m.addr, align 4
  %1 = load i32, ptr %__mod.addr, align 4
  %and = and i32 %0, %1
  ret i32 %and
}

; Function Attrs: mustprogress nounwind uwtable
define linkonce_odr noundef zeroext i1 @_ZNKSt6atomicIbE4loadESt12memory_order(ptr noundef nonnull align 1 dereferenceable(1) %this, i32 noundef %__m) #5 comdat align 2 personality ptr @__gxx_personality_v0 {
entry:
  %this.addr.i = alloca ptr, align 8
  %__m.addr.i = alloca i32, align 4
  %__b.i = alloca i32, align 4
  %atomic-temp.i = alloca i8, align 1
  %this.addr = alloca ptr, align 8
  %__m.addr = alloca i32, align 4
  store ptr %this, ptr %this.addr, align 8
  store i32 %__m, ptr %__m.addr, align 4
  %this1 = load ptr, ptr %this.addr, align 8
  %_M_base = getelementptr inbounds %"struct.std::atomic", ptr %this1, i32 0, i32 0
  %0 = load i32, ptr %__m.addr, align 4
  store ptr %_M_base, ptr %this.addr.i, align 8
  store i32 %0, ptr %__m.addr.i, align 4
  %this1.i = load ptr, ptr %this.addr.i, align 8
  %1 = load i32, ptr %__m.addr.i, align 4
  %call.i = invoke noundef i32 @_ZStanSt12memory_orderSt23__memory_order_modifier(i32 noundef %1, i32 noundef 65535)
          to label %invoke.cont.i unwind label %terminate.lpad.i

invoke.cont.i:                                    ; preds = %entry
  store i32 %call.i, ptr %__b.i, align 4
  %2 = load i32, ptr %__m.addr.i, align 4
  switch i32 %2, label %monotonic.i [
    i32 1, label %acquire.i
    i32 2, label %acquire.i
    i32 5, label %seqcst.i
  ]

monotonic.i:                                      ; preds = %invoke.cont.i
  %3 = load atomic i8, ptr %this1.i monotonic, align 1
  store i8 %3, ptr %atomic-temp.i, align 1
  br label %_ZNKSt13__atomic_baseIbE4loadESt12memory_order.exit

acquire.i:                                        ; preds = %invoke.cont.i, %invoke.cont.i
  %4 = load atomic i8, ptr %this1.i acquire, align 1
  store i8 %4, ptr %atomic-temp.i, align 1
  br label %_ZNKSt13__atomic_baseIbE4loadESt12memory_order.exit

seqcst.i:                                         ; preds = %invoke.cont.i
  %5 = load atomic i8, ptr %this1.i seq_cst, align 1
  store i8 %5, ptr %atomic-temp.i, align 1
  br label %_ZNKSt13__atomic_baseIbE4loadESt12memory_order.exit

terminate.lpad.i:                                 ; preds = %entry
  %6 = landingpad { ptr, i32 }
          catch ptr null
  %7 = extractvalue { ptr, i32 } %6, 0
  call void @__clang_call_terminate(ptr %7) #11
  unreachable

_ZNKSt13__atomic_baseIbE4loadESt12memory_order.exit: ; preds = %seqcst.i, %acquire.i, %monotonic.i
  %8 = load i8, ptr %atomic-temp.i, align 1
  %tobool.i = trunc i8 %8 to i1
  ret i1 %tobool.i
}

; Function Attrs: mustprogress nounwind uwtable
define linkonce_odr noundef zeroext i1 @_ZN9grpc_core9TraceFlag7enabledEv(ptr noundef nonnull align 8 dereferenceable(17) %this) #5 comdat align 2 {
entry:
  %this.addr = alloca ptr, align 8
  store ptr %this, ptr %this.addr, align 8
  %this1 = load ptr, ptr %this.addr, align 8
  %value_ = getelementptr inbounds %"class.grpc_core::TraceFlag", ptr %this1, i32 0, i32 2
  %call = call noundef zeroext i1 @_ZNKSt6atomicIbE4loadESt12memory_order(ptr noundef nonnull align 1 dereferenceable(1) %value_, i32 noundef 0) #3
  ret i1 %call
}

; Function Attrs: mustprogress uwtable
define void @grpc_call_details_init(ptr noundef %details) #4 {
entry:
  %details.addr = alloca ptr, align 8
  %ref.tmp = alloca %struct.grpc_slice, align 8
  %ref.tmp1 = alloca %struct.grpc_slice, align 8
  store ptr %details, ptr %details.addr, align 8
  %call = call noundef zeroext i1 @_ZN9grpc_core9TraceFlag7enabledEv(ptr noundef nonnull align 8 dereferenceable(17) @grpc_api_trace)
  br i1 %call, label %if.then, label %if.end

if.then:                                          ; preds = %entry
  %0 = load ptr, ptr %details.addr, align 8
  call void (ptr, i32, i32, ptr, ...) @gpr_log(ptr noundef @.str, i32 noundef 30, i32 noundef 1, ptr noundef @.str.1, ptr noundef %0)
  br label %if.end

if.end:                                           ; preds = %if.then, %entry
  call void @grpc_empty_slice(ptr sret(%struct.grpc_slice) align 8 %ref.tmp)
  %1 = load ptr, ptr %details.addr, align 8
  %method = getelementptr inbounds %struct.grpc_call_details, ptr %1, i32 0, i32 0
  call void @llvm.memcpy.p0.p0.i64(ptr align 8 %method, ptr align 8 %ref.tmp, i64 32, i1 false)
  call void @grpc_empty_slice(ptr sret(%struct.grpc_slice) align 8 %ref.tmp1)
  %2 = load ptr, ptr %details.addr, align 8
  %host = getelementptr inbounds %struct.grpc_call_details, ptr %2, i32 0, i32 1
  call void @llvm.memcpy.p0.p0.i64(ptr align 8 %host, ptr align 8 %ref.tmp1, i64 32, i1 false)
  ret void
}