; Function Attrs: mustprogress uwtable
define void @grpc_call_details_init(ptr noundef %details) local_unnamed_addr #3 personality ptr @__gxx_personality_v0 {
entry:
  %ref.tmp = alloca %struct.grpc_slice, align 8
  %ref.tmp1 = alloca %struct.grpc_slice, align 8
  %0 = load atomic i8, ptr getelementptr inbounds (%"class.grpc_core::TraceFlag", ptr @grpc_api_trace, i64 0, i32 2, i32 0, i32 0) monotonic, align 8
  %1 = and i8 %0, 1
  %tobool.i.i.i.not = icmp eq i8 %1, 0
  br i1 %tobool.i.i.i.not, label %if.end, label %if.then

if.then:                                          ; preds = %entry
  tail call void (ptr, i32, i32, ptr, ...) @gpr_log(ptr noundef nonnull @.str, i32 noundef 30, i32 noundef 1, ptr noundef nonnull @.str.1, ptr noundef %details)
  br label %if.end

if.end:                                           ; preds = %if.then, %entry
  call void @grpc_empty_slice(ptr nonnull sret(%struct.grpc_slice) align 8 %ref.tmp)
  call void @llvm.memcpy.p0.p0.i64(ptr noundef nonnull align 8 dereferenceable(32) %details, ptr noundef nonnull align 8 dereferenceable(32) %ref.tmp, i64 32, i1 false)
  call void @grpc_empty_slice(ptr nonnull sret(%struct.grpc_slice) align 8 %ref.tmp1)
  %host = getelementptr inbounds i8, ptr %details, i64 32
  call void @llvm.memcpy.p0.p0.i64(ptr noundef nonnull align 8 dereferenceable(32) %host, ptr noundef nonnull align 8 dereferenceable(32) %ref.tmp1, i64 32, i1 false)
  ret void
}